; Function Attrs: mustprogress uwtable
define dso_local noundef float @_ZN37btSequentialImpulseConstraintSolverMt33resolveMultipleContactConstraintsERK20btAlignedObjectArrayIiEii(ptr noundef nonnull align 8 dereferenceable(920) %0, ptr noundef nonnull readonly align 8 captures(none) dereferenceable(25) %1, i32 noundef %2, i32 noundef %3) local_unnamed_addr #0 align 2 {
  %5 = icmp slt i32 %2, %3
  br i1 %5, label %.lr.ph, label %._crit_edge

.lr.ph:                                           ; preds = %4
  %6 = getelementptr inbounds nuw i8, ptr %1, i64 16
  %7 = getelementptr inbounds nuw i8, ptr %0, i64 56
  %8 = getelementptr inbounds nuw i8, ptr %0, i64 24
  %9 = sext i32 %2 to i64
  br label %10

._crit_edge:                                      ; preds = %10, %4
  %.0.lcssa = phi float [ 0.000000e+00, %4 ], [ %27, %10 ]
  ret float %.0.lcssa

10:                                               ; preds = %.lr.ph, %10
  %indvars.iv = phi i64 [ %9, %.lr.ph ], [ %indvars.iv.next, %10 ]
  %.018 = phi float [ 0.000000e+00, %.lr.ph ], [ %27, %10 ]
  %11 = load ptr, ptr %6, align 8, !tbaa !15
  %12 = getelementptr inbounds i32, ptr %11, i64 %indvars.iv
  %13 = load i32, ptr %12, align 4, !tbaa !67
  %14 = load ptr, ptr %7, align 8, !tbaa !68
  %15 = sext i32 %13 to i64
  %16 = getelementptr inbounds %struct.btSolverConstraint, ptr %14, i64 %15
  %17 = getelementptr inbounds nuw i8, ptr %16, i64 152
  %18 = load i32, ptr %17, align 8, !tbaa !69
  %19 = load ptr, ptr %8, align 8, !tbaa !73
  %20 = sext i32 %18 to i64
  %21 = getelementptr inbounds %struct.btSolverBody, ptr %19, i64 %20
  %22 = getelementptr inbounds nuw i8, ptr %16, i64 156
  %23 = load i32, ptr %22, align 4, !tbaa !72
  %24 = sext i32 %23 to i64
  %25 = getelementptr inbounds %struct.btSolverBody, ptr %19, i64 %24
  %26 = tail call noundef float @_ZN35btSequentialImpulseConstraintSolver36resolveSingleConstraintRowLowerLimitER12btSolverBodyS1_RK18btSolverConstraint(ptr noundef nonnull align 8 dereferenceable(408) %0, ptr noundef nonnull align 8 dereferenceable(248) %21, ptr noundef nonnull align 8 dereferenceable(248) %25, ptr noundef nonnull align 8 dereferenceable(160) %16)
  %27 = tail call float @llvm.fmuladd.f32(float %26, float %26, float %.018)
  %indvars.iv.next = add nsw i64 %indvars.iv, 1
  %lftr.wideiv = trunc i64 %indvars.iv.next to i32
  %exitcond.not = icmp eq i32 %3, %lftr.wideiv
  br i1 %exitcond.not, label %._crit_edge, label %10, !llvm.loop !235
}